; Function Attrs: nounwind sspstrong uwtable
define internal i64 @econv_source_encoding(i64 noundef %0) #0 {
  %2 = tail call ptr @rb_check_typeddata(i64 noundef %0, ptr noundef nonnull @econv_data_type) #22
  %.not.i = icmp eq ptr %2, null
  br i1 %.not.i, label %3, label %check_econv.exit

3:                                                ; preds = %1
  %4 = load i64, ptr @rb_eTypeError, align 8, !tbaa !22
  tail call void (i64, ptr, ...) @rb_raise(i64 noundef %4, ptr noundef nonnull @.str.119) #23
  unreachable

check_econv.exit:                                 ; preds = %1
  %5 = getelementptr inbounds nuw i8, ptr %2, i64 168
  %6 = load ptr, ptr %5, align 8, !tbaa !223
  %.not.i1 = icmp eq ptr %6, null
  br i1 %.not.i1, label %econv_get_encoding.exit, label %7

7:                                                ; preds = %check_econv.exit
  %8 = tail call i64 @rb_enc_from_encoding(ptr noundef nonnull %6) #22
  br label %econv_get_encoding.exit

econv_get_encoding.exit:                          ; preds = %check_econv.exit, %7
  %.0.i = phi i64 [ %8, %7 ], [ 4, %check_econv.exit ]
  ret i64 %.0.i
}